; Function Attrs: mustprogress nounwind uwtable
define internal noundef zeroext i1 @_ZN12_GLOBAL__N_125ExplicitRewriteDescriptorILN4llvm14SymbolRewriter17RewriteDescriptor4TypeE1ENS1_8FunctionEXadL_ZNKS1_6Module11getFunctionENS1_9StringRefEEEE15performOnModuleERS6_(ptr noundef nonnull align 8 dereferenceable(80) %0, ptr noundef nonnull align 8 dereferenceable(857) %1) unnamed_addr #0 align 2 {
  %3 = alloca %"class.llvm::Twine", align 8
  %4 = getelementptr inbounds nuw i8, ptr %0, i64 16
  %5 = tail call noundef ptr @_ZNKSt7__cxx1112basic_stringIcSt11char_traitsIcESaIcEE4dataEv(ptr noundef nonnull align 8 dereferenceable(32) %4) #16
  %6 = tail call noundef i64 @_ZNKSt7__cxx1112basic_stringIcSt11char_traitsIcESaIcEE6lengthEv(ptr noundef nonnull align 8 dereferenceable(32) %4) #16
  %7 = tail call noundef ptr @_ZNK4llvm6Module11getFunctionENS_9StringRefE(ptr noundef nonnull align 8 dereferenceable(857) %1, ptr %5, i64 %6) #16
  %.not = icmp ne ptr %7, null
  br i1 %.not, label %8, label %18

8:                                                ; preds = %2
  %9 = getelementptr inbounds nuw i8, ptr %0, i64 48
  tail call fastcc void @_ZL13rewriteComdatRN4llvm6ModuleEPNS_12GlobalObjectERKNSt7__cxx1112basic_stringIcSt11char_traitsIcESaIcEEESB_(ptr noundef nonnull align 8 dereferenceable(857) %1, ptr noundef nonnull %7, ptr noundef nonnull align 8 dereferenceable(32) %4, ptr noundef nonnull align 8 dereferenceable(32) %9)
  %10 = tail call noundef ptr @_ZNKSt7__cxx1112basic_stringIcSt11char_traitsIcESaIcEE4dataEv(ptr noundef nonnull align 8 dereferenceable(32) %9) #16
  %11 = tail call noundef i64 @_ZNKSt7__cxx1112basic_stringIcSt11char_traitsIcESaIcEE6lengthEv(ptr noundef nonnull align 8 dereferenceable(32) %9) #16
  %12 = tail call noundef ptr @_ZNK4llvm6Module11getFunctionENS_9StringRefE(ptr noundef nonnull align 8 dereferenceable(857) %1, ptr %10, i64 %11) #16
  %.not16 = icmp eq ptr %12, null
  br i1 %.not16, label %15, label %13

13:                                               ; preds = %8
  %14 = tail call noundef ptr @_ZNK4llvm5Value12getValueNameEv(ptr noundef nonnull align 8 dereferenceable(24) %12) #16
  tail call void @_ZN4llvm5Value12setValueNameEPNS_14StringMapEntryIPS0_EE(ptr noundef nonnull align 8 dereferenceable(24) %7, ptr noundef %14) #16
  br label %18

15:                                               ; preds = %8
  %16 = getelementptr inbounds nuw i8, ptr %3, i64 32
  store i8 4, ptr %16, align 8
  %17 = getelementptr inbounds nuw i8, ptr %3, i64 33
  store i8 1, ptr %17, align 1
  store ptr %9, ptr %3, align 8
  call void @_ZN4llvm5Value7setNameERKNS_5TwineE(ptr noundef nonnull align 8 dereferenceable(24) %7, ptr noundef nonnull align 8 dereferenceable(34) %3) #16
  br label %18

18:                                               ; preds = %13, %15, %2
  ret i1 %.not
}